target datalayout = "e-m:e-p270:32:32-p271:32:32-p272:64:64-i64:64-i128:128-f80:128-n8:16:32:64-S128"
target triple = "x86_64-pc-linux-gnu"

%struct.AVFilterContext = type { ptr, ptr, ptr, ptr, ptr, i32, ptr, ptr, i32, ptr, ptr, i32, i32, ptr, ptr, ptr, ptr, i32, ptr, i32, i32 }
%struct.TestSourceContext = type { ptr, i32, i32, i32, i32, i32, %struct.AVRational, %struct.AVRational, i64, i64, %struct.AVRational, i32, i32, ptr, ptr, i32, i32, [4 x i8], i32, %struct.FFDrawContext, %struct.FFDrawColor, [4 x i8], [4 x i8], i32, i32, i32, i32, i32, i32, i32, i32, i32, i32, i32, i32, i32, i32, i32, i32, i32, i32, i32, ptr, ptr }
%struct.AVRational = type { i32, i32 }
%struct.FFDrawContext = type { ptr, i32, i32, [4 x i32], [4 x i8], [4 x i8], i8, i8, i32, i32, i32, [3 x [3 x double]] }
%struct.FFDrawColor = type { [4 x i8], [4 x %union.anon.2] }
%union.anon.2 = type { [4 x i32] }
%struct.AVChannelLayout = type { i32, i32, %union.anon.1, ptr }
%union.anon.1 = type { i64 }
%struct.AVFrame = type { [8 x ptr], [8 x i32], ptr, i32, i32, i32, i32, i32, %struct.AVRational, i64, i64, %struct.AVRational, i32, ptr, i32, i32, [8 x ptr], ptr, i32, ptr, i32, i32, i32, i32, i32, i32, i32, i64, ptr, i32, ptr, ptr, i64, i64, i64, i64, ptr, %struct.AVChannelLayout, i64 }
%struct.AVPixFmtDescriptor = type { ptr, i8, i8, i8, i64, [4 x %struct.AVComponentDescriptor], ptr }
%struct.AVComponentDescriptor = type { i32, i32, i32, i32, i32 }

@white = internal constant [4 x i8] c"\EB\80\80\FF", align 1
@rainbow = internal constant [7 x [4 x i8]] [[4 x i8] c"\B4\80\80\FF", [4 x i8] c"\A2,\8E\FF", [4 x i8] c"\83\9C,\FF", [4 x i8] c"pH:\FF", [4 x i8] c"T\B8\C6\FF", [4 x i8] c"Ad\D4\FF", [4 x i8] c"#\D4r\FF"], align 16
@black0 = internal constant [4 x i8] c"\10\80\80\FF", align 1

; Function Attrs: nounwind uwtable
define internal void @pal75bars_fill_picture(ptr noundef %0, ptr noundef %1) #1 {
  %3 = alloca ptr, align 8
  %4 = alloca ptr, align 8
  %5 = alloca ptr, align 8
  %6 = alloca i32, align 4
  %7 = alloca i32, align 4
  %8 = alloca i32, align 4
  %9 = alloca ptr, align 8
  store ptr %0, ptr %3, align 8, !tbaa !4
  store ptr %1, ptr %4, align 8, !tbaa !55
  call void @llvm.lifetime.start.p0(i64 8, ptr %5) #15
  %10 = load ptr, ptr %3, align 8, !tbaa !4
  %11 = getelementptr inbounds nuw %struct.AVFilterContext, ptr %10, i32 0, i32 9
  %12 = load ptr, ptr %11, align 8, !tbaa !9
  store ptr %12, ptr %5, align 8, !tbaa !22
  call void @llvm.lifetime.start.p0(i64 4, ptr %6) #15
  call void @llvm.lifetime.start.p0(i64 4, ptr %7) #15
  call void @llvm.lifetime.start.p0(i64 4, ptr %8) #15
  store i32 0, ptr %8, align 4, !tbaa !36
  call void @llvm.lifetime.start.p0(i64 8, ptr %9) #15
  %13 = load ptr, ptr %4, align 8, !tbaa !55
  %14 = getelementptr inbounds nuw %struct.AVFrame, ptr %13, i32 0, i32 6
  %15 = load i32, ptr %14, align 4, !tbaa !89
  %16 = call ptr @av_pix_fmt_desc_get(i32 noundef %15)
  store ptr %16, ptr %9, align 8, !tbaa !90
  %17 = load ptr, ptr %5, align 8, !tbaa !22
  %18 = getelementptr inbounds nuw %struct.TestSourceContext, ptr %17, i32 0, i32 1
  %19 = load i32, ptr %18, align 8, !tbaa !46
  %20 = add nsw i32 %19, 7
  %21 = sdiv i32 %20, 8
  %22 = load ptr, ptr %9, align 8, !tbaa !90
  %23 = getelementptr inbounds nuw %struct.AVPixFmtDescriptor, ptr %22, i32 0, i32 2
  %24 = load i8, ptr %23, align 1, !tbaa !147
  %25 = zext i8 %24 to i32
  %26 = shl i32 1, %25
  %27 = add nsw i32 %21, %26
  %28 = sub nsw i32 %27, 1
  %29 = load ptr, ptr %9, align 8, !tbaa !90
  %30 = getelementptr inbounds nuw %struct.AVPixFmtDescriptor, ptr %29, i32 0, i32 2
  %31 = load i8, ptr %30, align 1, !tbaa !147
  %32 = zext i8 %31 to i32
  %33 = shl i32 1, %32
  %34 = sub nsw i32 %33, 1
  %35 = xor i32 %34, -1
  %36 = and i32 %28, %35
  store i32 %36, ptr %6, align 4, !tbaa !36
  %37 = load ptr, ptr %5, align 8, !tbaa !22
  %38 = load i32, ptr %8, align 4, !tbaa !36
  %39 = load i32, ptr %6, align 4, !tbaa !36
  %40 = load ptr, ptr %5, align 8, !tbaa !22
  %41 = getelementptr inbounds nuw %struct.TestSourceContext, ptr %40, i32 0, i32 2
  %42 = load i32, ptr %41, align 4, !tbaa !47
  %43 = load ptr, ptr %4, align 8, !tbaa !55
  call void @draw_bar(ptr noundef %37, ptr noundef @white, i32 noundef %38, i32 noundef 0, i32 noundef %39, i32 noundef %42, ptr noundef %43)
  %44 = load i32, ptr %6, align 4, !tbaa !36
  %45 = load i32, ptr %8, align 4, !tbaa !36
  %46 = add nsw i32 %45, %44
  store i32 %46, ptr %8, align 4, !tbaa !36
  store i32 1, ptr %7, align 4, !tbaa !36
  br label %47

47:                                               ; preds = %65, %2
  %48 = load i32, ptr %7, align 4, !tbaa !36
  %49 = icmp slt i32 %48, 7
  br i1 %49, label %50, label %68

50:                                               ; preds = %47
  %51 = load ptr, ptr %5, align 8, !tbaa !22
  %52 = load i32, ptr %7, align 4, !tbaa !36
  %53 = sext i32 %52 to i64
  %54 = getelementptr inbounds [7 x [4 x i8]], ptr @rainbow, i64 0, i64 %53
  %55 = getelementptr inbounds [4 x i8], ptr %54, i64 0, i64 0
  %56 = load i32, ptr %8, align 4, !tbaa !36
  %57 = load i32, ptr %6, align 4, !tbaa !36
  %58 = load ptr, ptr %5, align 8, !tbaa !22
  %59 = getelementptr inbounds nuw %struct.TestSourceContext, ptr %58, i32 0, i32 2
  %60 = load i32, ptr %59, align 4, !tbaa !47
  %61 = load ptr, ptr %4, align 8, !tbaa !55
  call void @draw_bar(ptr noundef %51, ptr noundef %55, i32 noundef %56, i32 noundef 0, i32 noundef %57, i32 noundef %60, ptr noundef %61)
  %62 = load i32, ptr %6, align 4, !tbaa !36
  %63 = load i32, ptr %8, align 4, !tbaa !36
  %64 = add nsw i32 %63, %62
  store i32 %64, ptr %8, align 4, !tbaa !36
  br label %65

65:                                               ; preds = %50
  %66 = load i32, ptr %7, align 4, !tbaa !36
  %67 = add nsw i32 %66, 1
  store i32 %67, ptr %7, align 4, !tbaa !36
  br label %47, !llvm.loop !148

68:                                               ; preds = %47
  %69 = load ptr, ptr %5, align 8, !tbaa !22
  %70 = load i32, ptr %8, align 4, !tbaa !36
  %71 = load i32, ptr %6, align 4, !tbaa !36
  %72 = load ptr, ptr %5, align 8, !tbaa !22
  %73 = getelementptr inbounds nuw %struct.TestSourceContext, ptr %72, i32 0, i32 2
  %74 = load i32, ptr %73, align 4, !tbaa !47
  %75 = load ptr, ptr %4, align 8, !tbaa !55
  call void @draw_bar(ptr noundef %69, ptr noundef @black0, i32 noundef %70, i32 noundef 0, i32 noundef %71, i32 noundef %74, ptr noundef %75)
  call void @llvm.lifetime.end.p0(i64 8, ptr %9) #15
  call void @llvm.lifetime.end.p0(i64 4, ptr %8) #15
  call void @llvm.lifetime.end.p0(i64 4, ptr %7) #15
  call void @llvm.lifetime.end.p0(i64 4, ptr %6) #15
  call void @llvm.lifetime.end.p0(i64 8, ptr %5) #15
  ret void
}