; Function Attrs: nounwind uwtable
define internal void @pal75bars_fill_picture(ptr noundef readonly captures(none) %0, ptr noundef readonly captures(none) %1) #1 {
  %3 = getelementptr inbounds nuw i8, ptr %0, i64 72
  %4 = load ptr, ptr %3, align 8, !tbaa !4
  %5 = getelementptr inbounds nuw i8, ptr %1, i64 116
  %6 = load i32, ptr %5, align 4, !tbaa !71
  %7 = tail call ptr @av_pix_fmt_desc_get(i32 noundef %6) #20
  %8 = getelementptr inbounds nuw i8, ptr %4, i64 8
  %9 = load i32, ptr %8, align 8, !tbaa !36
  %10 = add nsw i32 %9, 7
  %11 = sdiv i32 %10, 8
  %12 = getelementptr inbounds nuw i8, ptr %7, i64 9
  %13 = load i8, ptr %12, align 1, !tbaa !117
  %14 = zext nneg i8 %13 to i32
  %15 = shl nuw i32 1, %14
  %16 = add nsw i32 %11, -1
  %17 = add i32 %16, %15
  %18 = sub i32 0, %15
  %19 = and i32 %17, %18
  %20 = getelementptr inbounds nuw i8, ptr %4, i64 12
  %21 = load i32, ptr %20, align 4, !tbaa !37
  tail call fastcc void @draw_bar(ptr noundef %4, ptr noundef nonnull @white, i32 noundef 0, i32 noundef 0, i32 noundef %19, i32 noundef %21, ptr noundef %1)
  br label %22

22:                                               ; preds = %2, %22
  %indvars.iv = phi i64 [ 1, %2 ], [ %indvars.iv.next, %22 ]
  %.02627 = phi i32 [ %19, %2 ], [ %25, %22 ]
  %23 = getelementptr inbounds nuw [7 x [4 x i8]], ptr @rainbow, i64 0, i64 %indvars.iv
  %24 = load i32, ptr %20, align 4, !tbaa !37
  tail call fastcc void @draw_bar(ptr noundef nonnull %4, ptr noundef nonnull %23, i32 noundef %.02627, i32 noundef 0, i32 noundef %19, i32 noundef %24, ptr noundef nonnull %1)
  %25 = add nsw i32 %.02627, %19
  %indvars.iv.next = add nuw nsw i64 %indvars.iv, 1
  %exitcond.not = icmp eq i64 %indvars.iv.next, 7
  br i1 %exitcond.not, label %26, label %22, !llvm.loop !118

26:                                               ; preds = %22
  %27 = load i32, ptr %20, align 4, !tbaa !37
  tail call fastcc void @draw_bar(ptr noundef nonnull %4, ptr noundef nonnull @black0, i32 noundef %25, i32 noundef 0, i32 noundef %19, i32 noundef %27, ptr noundef nonnull %1)
  ret void
}